; Function Attrs: nounwind uwtable
define ptr @l_Lean_Expr_withAppAux___at_Lean_Elab_Tactic_BVDecide_Frontend_Normalize_applyIteSimproc___spec__1___lambda__1___boxed(ptr noundef %0, ptr noundef %1, ptr noundef %2, ptr noundef %3, ptr noundef %4, ptr noundef %5, ptr noundef %6, ptr noundef %7, ptr noundef %8, ptr noundef %9, ptr noundef %10, ptr noundef %11, ptr noundef %12, ptr noundef %13, ptr noundef %14) local_unnamed_addr #0 {
  %16 = tail call ptr @l_Lean_Expr_withAppAux___at_Lean_Elab_Tactic_BVDecide_Frontend_Normalize_applyIteSimproc___spec__1___lambda__1(ptr noundef %0, ptr noundef %1, ptr noundef %2, ptr noundef %3, ptr noundef %4, ptr noundef %5, ptr noundef %6, ptr poison, ptr poison, ptr poison, ptr noundef %10, ptr noundef %11, ptr noundef %12, ptr noundef %13, ptr noundef %14)
  %17 = ptrtoint ptr %9 to i64
  %18 = and i64 %17, 1
  %.not = icmp eq i64 %18, 0
  br i1 %.not, label %19, label %lean_dec.exit20

19:                                               ; preds = %15
  %20 = load i32, ptr %9, align 4, !tbaa !4
  %21 = icmp sgt i32 %20, 1
  br i1 %21, label %22, label %24, !prof !13

22:                                               ; preds = %19
  %23 = add nsw i32 %20, -1
  store i32 %23, ptr %9, align 4, !tbaa !4
  br label %lean_dec.exit20

24:                                               ; preds = %19
  %.not.i = icmp eq i32 %20, 0
  br i1 %.not.i, label %lean_dec.exit20, label %25

25:                                               ; preds = %24
  tail call void @lean_dec_ref_cold(ptr noundef nonnull %9) #3
  br label %lean_dec.exit20

lean_dec.exit20:                                  ; preds = %25, %24, %22, %15
  %26 = ptrtoint ptr %8 to i64
  %27 = and i64 %26, 1
  %.not25 = icmp eq i64 %27, 0
  br i1 %.not25, label %28, label %lean_dec.exit19

28:                                               ; preds = %lean_dec.exit20
  %29 = load i32, ptr %8, align 4, !tbaa !4
  %30 = icmp sgt i32 %29, 1
  br i1 %30, label %31, label %33, !prof !13

31:                                               ; preds = %28
  %32 = add nsw i32 %29, -1
  store i32 %32, ptr %8, align 4, !tbaa !4
  br label %lean_dec.exit19

33:                                               ; preds = %28
  %.not.i21 = icmp eq i32 %29, 0
  br i1 %.not.i21, label %lean_dec.exit19, label %34

34:                                               ; preds = %33
  tail call void @lean_dec_ref_cold(ptr noundef nonnull %8) #3
  br label %lean_dec.exit19

lean_dec.exit19:                                  ; preds = %34, %33, %31, %lean_dec.exit20
  %35 = ptrtoint ptr %7 to i64
  %36 = and i64 %35, 1
  %.not26 = icmp eq i64 %36, 0
  br i1 %.not26, label %37, label %lean_dec.exit

37:                                               ; preds = %lean_dec.exit19
  %38 = load i32, ptr %7, align 4, !tbaa !4
  %39 = icmp sgt i32 %38, 1
  br i1 %39, label %40, label %42, !prof !13

40:                                               ; preds = %37
  %41 = add nsw i32 %38, -1
  store i32 %41, ptr %7, align 4, !tbaa !4
  br label %lean_dec.exit

42:                                               ; preds = %37
  %.not.i23 = icmp eq i32 %38, 0
  br i1 %.not.i23, label %lean_dec.exit, label %43

43:                                               ; preds = %42
  tail call void @lean_dec_ref_cold(ptr noundef nonnull %7) #3
  br label %lean_dec.exit

lean_dec.exit:                                    ; preds = %43, %42, %40, %lean_dec.exit19
  ret ptr %16
}